target datalayout = "e-m:e-p270:32:32-p271:32:32-p272:64:64-i64:64-i128:128-f80:128-n8:16:32:64-S128"
target triple = "x86_64-pc-linux-gnu"

%struct.RlcMacPrivateData_t = type { i32, i32, i8, i32, i32, %union.anon }
%union.anon = type { %struct.egprs_ul_header_info_t }
%struct.egprs_ul_header_info_t = type { i16, i16, i8 }

@sub_handles = internal global [2 x ptr] zeroinitializer, align 16
@.str.139 = private unnamed_addr constant [29 x i8] c"%s:%u: failed assertion \22%s\22\00", align 1
@.str.140 = private unnamed_addr constant [39 x i8] c"epan/dissectors/packet-gsm_abis_pgsl.c\00", align 1
@.str.141 = private unnamed_addr constant [81 x i8] c"rm->mcs < (sizeof (data_block_len_by_mcs) / sizeof ((data_block_len_by_mcs)[0]))\00", align 1
@data_block_len_by_mcs = internal constant [11 x i32] [i32 0, i32 22, i32 28, i32 37, i32 44, i32 56, i32 74, i32 56, i32 68, i32 74, i32 0], align 16

; Function Attrs: null_pointer_is_valid sspstrong uwtable
define internal void @setup_rlc_mac_priv(ptr noundef %0, i1 noundef zeroext %1, ptr noundef %2, ptr noundef %3, ptr noundef %4) #0 {
  %6 = alloca ptr, align 8
  %7 = alloca i8, align 1
  %8 = alloca ptr, align 8
  %9 = alloca ptr, align 8
  %10 = alloca ptr, align 8
  %11 = alloca i32, align 4
  %12 = alloca i32, align 4
  %13 = alloca [2 x i32], align 4
  store ptr %0, ptr %6, align 8
  %14 = zext i1 %1 to i8
  store i8 %14, ptr %7, align 1
  store ptr %2, ptr %8, align 8
  store ptr %3, ptr %9, align 8
  store ptr %4, ptr %10, align 8
  call void @llvm.lifetime.start.p0(i64 4, ptr %11) #10
  call void @llvm.lifetime.start.p0(i64 4, ptr %12) #10
  store i32 0, ptr %12, align 4
  call void @llvm.lifetime.start.p0(i64 8, ptr %13) #10
  call void @llvm.memset.p0.i64(ptr align 4 %13, i8 0, i64 8, i1 false)
  %15 = load ptr, ptr %6, align 8
  %16 = getelementptr inbounds nuw %struct.RlcMacPrivateData_t, ptr %15, i32 0, i32 2
  %17 = load i8, ptr %16, align 4
  %18 = zext i8 %17 to i64
  %19 = icmp ult i64 %18, 11
  br i1 %19, label %20, label %21

20:                                               ; preds = %5
  br label %23

21:                                               ; preds = %5
  call void (ptr, ...) @proto_report_dissector_bug(ptr noundef @.str.139, ptr noundef @.str.140, i32 noundef 195, ptr noundef @.str.141) #11
  unreachable

22:                                               ; No predecessors!
  br label %23

23:                                               ; preds = %22, %20
  %24 = load ptr, ptr %6, align 8
  %25 = getelementptr inbounds nuw %struct.RlcMacPrivateData_t, ptr %24, i32 0, i32 2
  %26 = load i8, ptr %25, align 4
  %27 = zext i8 %26 to i64
  %28 = getelementptr [11 x i32], ptr @data_block_len_by_mcs, i64 0, i64 %27
  %29 = load i32, ptr %28, align 4
  store i32 %29, ptr %12, align 4
  %30 = load ptr, ptr %6, align 8
  %31 = getelementptr inbounds nuw %struct.RlcMacPrivateData_t, ptr %30, i32 0, i32 1
  %32 = load i32, ptr %31, align 4
  switch i32 %32, label %52 [
    i32 49, label %33
    i32 50, label %45
    i32 51, label %50
  ]

33:                                               ; preds = %23
  store i32 3, ptr %11, align 4
  %34 = load i8, ptr %7, align 1, !range !6, !noundef !7
  %35 = trunc i8 %34 to i1
  %36 = select i1 %35, i32 46, i32 40
  %37 = getelementptr [2 x i32], ptr %13, i64 0, i64 0
  store i32 %36, ptr %37, align 4
  %38 = getelementptr [2 x i32], ptr %13, i64 0, i64 0
  %39 = load i32, ptr %38, align 4
  %40 = load i32, ptr %12, align 4
  %41 = mul i32 %40, 8
  %42 = add i32 %39, %41
  %43 = add i32 %42, 2
  %44 = getelementptr [2 x i32], ptr %13, i64 0, i64 1
  store i32 %43, ptr %44, align 4
  br label %53

45:                                               ; preds = %23
  store i32 2, ptr %11, align 4
  %46 = load i8, ptr %7, align 1, !range !6, !noundef !7
  %47 = trunc i8 %46 to i1
  %48 = select i1 %47, i32 37, i32 28
  %49 = getelementptr [2 x i32], ptr %13, i64 0, i64 0
  store i32 %48, ptr %49, align 4
  br label %53

50:                                               ; preds = %23
  store i32 2, ptr %11, align 4
  %51 = getelementptr [2 x i32], ptr %13, i64 0, i64 0
  store i32 31, ptr %51, align 4
  br label %53

52:                                               ; preds = %23
  store i32 1, ptr %11, align 4
  br label %53

53:                                               ; preds = %52, %50, %45, %33
  %54 = load i32, ptr %11, align 4
  %55 = load ptr, ptr %8, align 8
  store i32 %54, ptr %55, align 4
  %56 = load i32, ptr %12, align 4
  %57 = mul i32 %56, 8
  %58 = add i32 %57, 2
  %59 = load ptr, ptr %9, align 8
  store i32 %58, ptr %59, align 4
  %60 = getelementptr [2 x i32], ptr %13, i64 0, i64 0
  %61 = load i32, ptr %60, align 4
  %62 = load ptr, ptr %10, align 8
  %63 = getelementptr i32, ptr %62, i64 0
  store i32 %61, ptr %63, align 4
  %64 = getelementptr [2 x i32], ptr %13, i64 0, i64 1
  %65 = load i32, ptr %64, align 4
  %66 = load ptr, ptr %10, align 8
  %67 = getelementptr i32, ptr %66, i64 1
  store i32 %65, ptr %67, align 4
  call void @llvm.lifetime.end.p0(i64 8, ptr %13) #10
  call void @llvm.lifetime.end.p0(i64 4, ptr %12) #10
  call void @llvm.lifetime.end.p0(i64 4, ptr %11) #10
  ret void
}

; Function Attrs: null_pointer_is_valid sspstrong uwtable
define internal void @dissect_gprs_data(ptr noundef %0, ptr noundef %1, ptr noundef %2, i1 noundef zeroext %3, ptr noundef %4) #0 {
  %6 = alloca ptr, align 8
  %7 = alloca ptr, align 8
  %8 = alloca ptr, align 8
  %9 = alloca i8, align 1
  %10 = alloca ptr, align 8
  %11 = alloca ptr, align 8
  %12 = alloca ptr, align 8
  %13 = alloca i32, align 4
  %14 = alloca [2 x i32], align 4
  %15 = alloca i32, align 4
  store ptr %0, ptr %6, align 8
  store ptr %1, ptr %7, align 8
  store ptr %2, ptr %8, align 8
  %16 = zext i1 %3 to i8
  store i8 %16, ptr %9, align 1
  store ptr %4, ptr %10, align 8
  call void @llvm.lifetime.start.p0(i64 8, ptr %11) #10
  call void @llvm.lifetime.start.p0(i64 8, ptr %12) #10
  call void @llvm.lifetime.start.p0(i64 4, ptr %13) #10
  call void @llvm.lifetime.start.p0(i64 8, ptr %14) #10
  call void @llvm.lifetime.start.p0(i64 4, ptr %15) #10
  %17 = load i8, ptr %9, align 1, !range !6, !noundef !7
  %18 = trunc i8 %17 to i1
  br i1 %18, label %19, label %21

19:                                               ; preds = %5
  %20 = load ptr, ptr @sub_handles, align 16
  store ptr %20, ptr %11, align 8
  br label %23

21:                                               ; preds = %5
  %22 = load ptr, ptr getelementptr ([2 x ptr], ptr @sub_handles, i64 0, i64 1), align 8
  store ptr %22, ptr %11, align 8
  br label %23

23:                                               ; preds = %21, %19
  %24 = load ptr, ptr %10, align 8
  %25 = getelementptr inbounds nuw %struct.RlcMacPrivateData_t, ptr %24, i32 0, i32 1
  %26 = load i32, ptr %25, align 4
  switch i32 %26, label %91 [
    i32 32, label %27
    i32 49, label %44
    i32 50, label %44
    i32 51, label %44
  ]

27:                                               ; preds = %23
  %28 = load ptr, ptr %6, align 8
  %29 = load ptr, ptr %7, align 8
  %30 = load ptr, ptr %8, align 8
  %31 = load ptr, ptr %10, align 8
  call void @dissect_pgsl_access_burst(ptr noundef %28, i32 noundef 0, ptr noundef %29, ptr noundef %30, ptr noundef %31)
  %32 = load ptr, ptr %6, align 8
  %33 = load ptr, ptr %7, align 8
  %34 = load ptr, ptr %8, align 8
  %35 = load ptr, ptr %10, align 8
  call void @dissect_pgsl_access_burst(ptr noundef %32, i32 noundef 5, ptr noundef %33, ptr noundef %34, ptr noundef %35)
  %36 = load ptr, ptr %6, align 8
  %37 = load ptr, ptr %7, align 8
  %38 = load ptr, ptr %8, align 8
  %39 = load ptr, ptr %10, align 8
  call void @dissect_pgsl_access_burst(ptr noundef %36, i32 noundef 10, ptr noundef %37, ptr noundef %38, ptr noundef %39)
  %40 = load ptr, ptr %6, align 8
  %41 = load ptr, ptr %7, align 8
  %42 = load ptr, ptr %8, align 8
  %43 = load ptr, ptr %10, align 8
  call void @dissect_pgsl_access_burst(ptr noundef %40, i32 noundef 15, ptr noundef %41, ptr noundef %42, ptr noundef %43)
  br label %98

44:                                               ; preds = %23, %23, %23
  %45 = load ptr, ptr %11, align 8
  %46 = load ptr, ptr %6, align 8
  %47 = load ptr, ptr %7, align 8
  %48 = load ptr, ptr %8, align 8
  %49 = load ptr, ptr %10, align 8
  %50 = call i32 @call_dissector_with_data(ptr noundef %45, ptr noundef %46, ptr noundef %47, ptr noundef %48, ptr noundef %49)
  %51 = load ptr, ptr %10, align 8
  %52 = load i8, ptr %9, align 1, !range !6, !noundef !7
  %53 = trunc i8 %52 to i1
  %54 = getelementptr inbounds [2 x i32], ptr %14, i64 0, i64 0
  call void @setup_rlc_mac_priv(ptr noundef %51, i1 noundef zeroext %53, ptr noundef %15, ptr noundef %13, ptr noundef %54)
  %55 = load i32, ptr %15, align 4
  %56 = icmp uge i32 %55, 2
  br i1 %56, label %57, label %72

57:                                               ; preds = %44
  %58 = load ptr, ptr %10, align 8
  %59 = getelementptr inbounds nuw %struct.RlcMacPrivateData_t, ptr %58, i32 0, i32 4
  store i32 1, ptr %59, align 4
  %60 = load ptr, ptr %6, align 8
  %61 = getelementptr [2 x i32], ptr %14, i64 0, i64 0
  %62 = load i32, ptr %61, align 4
  %63 = load i32, ptr %13, align 4
  %64 = load ptr, ptr %7, align 8
  %65 = call ptr @get_egprs_data_block(ptr noundef %60, i32 noundef %62, i32 noundef %63, ptr noundef %64)
  store ptr %65, ptr %12, align 8
  %66 = load ptr, ptr %11, align 8
  %67 = load ptr, ptr %12, align 8
  %68 = load ptr, ptr %7, align 8
  %69 = load ptr, ptr %8, align 8
  %70 = load ptr, ptr %10, align 8
  %71 = call i32 @call_dissector_with_data(ptr noundef %66, ptr noundef %67, ptr noundef %68, ptr noundef %69, ptr noundef %70)
  br label %72

72:                                               ; preds = %57, %44
  %73 = load i32, ptr %15, align 4
  %74 = icmp eq i32 %73, 3
  br i1 %74, label %75, label %90

75:                                               ; preds = %72
  %76 = load ptr, ptr %10, align 8
  %77 = getelementptr inbounds nuw %struct.RlcMacPrivateData_t, ptr %76, i32 0, i32 4
  store i32 2, ptr %77, align 4
  %78 = load ptr, ptr %6, align 8
  %79 = getelementptr [2 x i32], ptr %14, i64 0, i64 1
  %80 = load i32, ptr %79, align 4
  %81 = load i32, ptr %13, align 4
  %82 = load ptr, ptr %7, align 8
  %83 = call ptr @get_egprs_data_block(ptr noundef %78, i32 noundef %80, i32 noundef %81, ptr noundef %82)
  store ptr %83, ptr %12, align 8
  %84 = load ptr, ptr %11, align 8
  %85 = load ptr, ptr %12, align 8
  %86 = load ptr, ptr %7, align 8
  %87 = load ptr, ptr %8, align 8
  %88 = load ptr, ptr %10, align 8
  %89 = call i32 @call_dissector_with_data(ptr noundef %84, ptr noundef %85, ptr noundef %86, ptr noundef %87, ptr noundef %88)
  br label %90

90:                                               ; preds = %75, %72
  br label %98

91:                                               ; preds = %23
  %92 = load ptr, ptr %11, align 8
  %93 = load ptr, ptr %6, align 8
  %94 = load ptr, ptr %7, align 8
  %95 = load ptr, ptr %8, align 8
  %96 = load ptr, ptr %10, align 8
  %97 = call i32 @call_dissector_with_data(ptr noundef %92, ptr noundef %93, ptr noundef %94, ptr noundef %95, ptr noundef %96)
  br label %98

98:                                               ; preds = %91, %90, %27
  call void @llvm.lifetime.end.p0(i64 4, ptr %15) #10
  call void @llvm.lifetime.end.p0(i64 8, ptr %14) #10
  call void @llvm.lifetime.end.p0(i64 4, ptr %13) #10
  call void @llvm.lifetime.end.p0(i64 8, ptr %12) #10
  call void @llvm.lifetime.end.p0(i64 8, ptr %11) #10
  ret void
}