; Function Attrs: null_pointer_is_valid sspstrong uwtable
define internal fastcc void @dissect_gprs_data(ptr noundef %0, ptr noundef %1, ptr noundef %2, i1 noundef zeroext %3, ptr noundef %4) unnamed_addr #0 {
  %sub_handles.0.val = load ptr, ptr @sub_handles.0, align 16
  %sub_handles.1.val = load ptr, ptr @sub_handles.1, align 8
  %.0 = select i1 %3, ptr %sub_handles.0.val, ptr %sub_handles.1.val
  %6 = getelementptr inbounds nuw i8, ptr %4, i64 4
  %7 = load i32, ptr %6, align 4
  switch i32 %7, label %37 [
    i32 32, label %8
    i32 49, label %9
    i32 50, label %9
    i32 51, label %9
  ]

8:                                                ; preds = %5
  tail call fastcc void @dissect_pgsl_access_burst(ptr noundef %0, i32 noundef 0, ptr noundef %1, ptr noundef %2, ptr noundef %4)
  tail call fastcc void @dissect_pgsl_access_burst(ptr noundef %0, i32 noundef 5, ptr noundef %1, ptr noundef %2, ptr noundef %4)
  tail call fastcc void @dissect_pgsl_access_burst(ptr noundef %0, i32 noundef 10, ptr noundef %1, ptr noundef %2, ptr noundef %4)
  tail call fastcc void @dissect_pgsl_access_burst(ptr noundef %0, i32 noundef 15, ptr noundef %1, ptr noundef %2, ptr noundef %4)
  br label %.thread

9:                                                ; preds = %5, %5, %5
  %10 = tail call i32 @call_dissector_with_data(ptr noundef %.0, ptr noundef %0, ptr noundef %1, ptr noundef %2, ptr noundef %4)
  %11 = getelementptr inbounds nuw i8, ptr %4, i64 8
  %12 = load i8, ptr %11, align 4
  %13 = icmp ult i8 %12, 11
  br i1 %13, label %15, label %14

14:                                               ; preds = %9
  tail call void (ptr, ...) @proto_report_dissector_bug(ptr noundef nonnull @.str.139, ptr noundef nonnull @.str.140, i32 noundef 195, ptr noundef nonnull @.str.141) #9
  unreachable

15:                                               ; preds = %9
  %16 = zext nneg i8 %12 to i64
  %17 = getelementptr [11 x i32], ptr @data_block_len_by_mcs, i64 0, i64 %16
  %18 = load i32, ptr %17, align 4
  %19 = load i32, ptr %6, align 4
  switch i32 %19, label %.thread [
    i32 49, label %20
    i32 50, label %25
    i32 51, label %27
  ]

20:                                               ; preds = %15
  %21 = select i1 %3, i32 46, i32 40
  %22 = shl i32 %18, 3
  %23 = add nuw nsw i32 %21, 2
  %24 = add i32 %23, %22
  br label %27

25:                                               ; preds = %15
  %26 = select i1 %3, i32 37, i32 28
  br label %27

27:                                               ; preds = %15, %20, %25
  %28 = phi i1 [ false, %15 ], [ true, %20 ], [ false, %25 ]
  %.sroa.0.0.i.ph = phi i32 [ 31, %15 ], [ %21, %20 ], [ %26, %25 ]
  %.sroa.8.0.i.ph = phi i32 [ 0, %15 ], [ %24, %20 ], [ 0, %25 ]
  %29 = shl i32 %18, 3
  %30 = or disjoint i32 %29, 2
  %31 = getelementptr inbounds nuw i8, ptr %4, i64 16
  store i32 1, ptr %31, align 4
  %32 = tail call fastcc ptr @get_egprs_data_block(ptr noundef %0, i32 noundef %.sroa.0.0.i.ph, i32 noundef %30, ptr noundef %1)
  %33 = tail call i32 @call_dissector_with_data(ptr noundef %.0, ptr noundef %32, ptr noundef %1, ptr noundef %2, ptr noundef %4)
  br i1 %28, label %34, label %.thread

34:                                               ; preds = %27
  store i32 2, ptr %31, align 4
  %35 = tail call fastcc ptr @get_egprs_data_block(ptr noundef %0, i32 noundef %.sroa.8.0.i.ph, i32 noundef %30, ptr noundef %1)
  %36 = tail call i32 @call_dissector_with_data(ptr noundef %.0, ptr noundef %35, ptr noundef %1, ptr noundef %2, ptr noundef %4)
  br label %.thread

37:                                               ; preds = %5
  %38 = tail call i32 @call_dissector_with_data(ptr noundef %.0, ptr noundef %0, ptr noundef %1, ptr noundef %2, ptr noundef %4)
  br label %.thread

.thread:                                          ; preds = %15, %27, %34, %37, %8
  ret void
}